; Function Attrs: mustprogress uwtable
define void @_ZNK6icu_7516LocaleKeyFactory16updateVisibleIDsERNS_9HashtableER10UErrorCode(ptr noundef nonnull align 8 dereferenceable(76) %this, ptr nocapture noundef nonnull readonly align 8 dereferenceable(88) %result, ptr noundef nonnull align 4 dereferenceable(4) %status) unnamed_addr #1 align 2 personality ptr @__gxx_personality_v0 {
entry:
  %pos = alloca i32, align 4
  %vtable = load ptr, ptr %this, align 8
  %vfn = getelementptr inbounds i8, ptr %vtable, i64 64
  %0 = load ptr, ptr %vfn, align 8
  %call = tail call noundef ptr %0(ptr noundef nonnull align 8 dereferenceable(76) %this, ptr noundef nonnull align 4 dereferenceable(4) %status)
  %tobool.not = icmp eq ptr %call, null
  br i1 %tobool.not, label %if.end12, label %if.then

if.then:                                          ; preds = %entry
  %_coverage = getelementptr inbounds i8, ptr %this, i64 72
  %1 = load i32, ptr %_coverage, align 8
  store i32 -1, ptr %pos, align 4
  %2 = load ptr, ptr %call, align 8
  %call.i8 = call noundef ptr @uhash_nextElement_75(ptr noundef %2, ptr noundef nonnull %pos)
  %cmp3.not9 = icmp eq ptr %call.i8, null
  br i1 %cmp3.not9, label %if.end12, label %while.body.lr.ph

while.body.lr.ph:                                 ; preds = %if.then
  %and = and i32 %1, 1
  %cmp = icmp eq i32 %and, 0
  br i1 %cmp, label %while.body.us, label %while.body

while.body.us:                                    ; preds = %while.body.lr.ph, %if.end11.us
  %call.i10.us = phi ptr [ %call.i.us, %if.end11.us ], [ %call.i8, %while.body.lr.ph ]
  %key.us = getelementptr inbounds i8, ptr %call.i10.us, i64 16
  %3 = load ptr, ptr %key.us, align 8
  %4 = load ptr, ptr %result, align 8
  %call.i7.us = call noundef ptr @_ZN6icu_757UMemorynwEm(i64 noundef 64) #10
  %new.isnull.i.us = icmp eq ptr %call.i7.us, null
  br i1 %new.isnull.i.us, label %_ZN6icu_759Hashtable3putERKNS_13UnicodeStringEPvR10UErrorCode.exit.us, label %new.notnull.i.us

new.notnull.i.us:                                 ; preds = %while.body.us
  invoke void @_ZN6icu_7513UnicodeStringC1ERKS0_(ptr noundef nonnull align 8 dereferenceable(64) %call.i7.us, ptr noundef nonnull align 8 dereferenceable(64) %3)
          to label %_ZN6icu_759Hashtable3putERKNS_13UnicodeStringEPvR10UErrorCode.exit.us unwind label %lpad.i.split.us

_ZN6icu_759Hashtable3putERKNS_13UnicodeStringEPvR10UErrorCode.exit.us: ; preds = %new.notnull.i.us, %while.body.us
  %call2.i.us = call noundef ptr @uhash_put_75(ptr noundef %4, ptr noundef %call.i7.us, ptr noundef nonnull %this, ptr noundef nonnull %status)
  %5 = load i32, ptr %status, align 4
  %cmp.i.us = icmp slt i32 %5, 1
  br i1 %cmp.i.us, label %if.end11.us, label %if.end12

if.end11.us:                                      ; preds = %_ZN6icu_759Hashtable3putERKNS_13UnicodeStringEPvR10UErrorCode.exit.us
  %6 = load ptr, ptr %call, align 8
  %call.i.us = call noundef ptr @uhash_nextElement_75(ptr noundef %6, ptr noundef nonnull %pos)
  %cmp3.not.us = icmp eq ptr %call.i.us, null
  br i1 %cmp3.not.us, label %if.end12, label %while.body.us, !llvm.loop !4

lpad.i.split.us:                                  ; preds = %new.notnull.i.us
  %7 = landingpad { ptr, i32 }
          cleanup
  call void @_ZN6icu_757UMemorydlEPv(ptr noundef nonnull %call.i7.us) #10
  resume { ptr, i32 } %7

while.body:                                       ; preds = %while.body.lr.ph, %while.body
  %call.i10 = phi ptr [ %call.i, %while.body ], [ %call.i8, %while.body.lr.ph ]
  %key = getelementptr inbounds i8, ptr %call.i10, i64 16
  %8 = load ptr, ptr %key, align 8
  %9 = load ptr, ptr %result, align 8
  %call.i6 = call noundef ptr @uhash_remove_75(ptr noundef %9, ptr noundef nonnull %8)
  %10 = load ptr, ptr %call, align 8
  %call.i = call noundef ptr @uhash_nextElement_75(ptr noundef %10, ptr noundef nonnull %pos)
  %cmp3.not = icmp eq ptr %call.i, null
  br i1 %cmp3.not, label %if.end12, label %while.body, !llvm.loop !4

if.end12:                                         ; preds = %while.body, %_ZN6icu_759Hashtable3putERKNS_13UnicodeStringEPvR10UErrorCode.exit.us, %if.end11.us, %if.then, %entry
  ret void
}